; Function Attrs: mustprogress nofree norecurse nosync nounwind willreturn memory(argmem: read) uwtable
define hidden noundef zeroext i1 @_ZNK13dep_intervals28separated_from_zero_on_upperERKNS_9im_config8intervalE(ptr nocapture noundef nonnull readnone align 8 dereferenceable(1424) %this, ptr nocapture noundef nonnull readonly align 8 dereferenceable(88) %i) local_unnamed_addr #5 align 2 {
entry:
  %m_upper_inf.i.i = getelementptr inbounds i8, ptr %i, i64 64
  %bf.load.i.i = load i8, ptr %m_upper_inf.i.i, align 8
  %0 = and i8 %bf.load.i.i, 8
  %tobool.i.i.not = icmp eq i8 %0, 0
  br i1 %tobool.i.i.not, label %if.end, label %return

if.end:                                           ; preds = %entry
  %m_upper.i.i = getelementptr inbounds i8, ptr %i, i64 32
  %1 = load i32, ptr %m_upper.i.i, align 8
  %cmp.i.i.i = icmp sgt i32 %1, 0
  br i1 %cmp.i.i.i, label %return, label %if.end5

if.end5:                                          ; preds = %if.end
  %cmp.i.i.i5 = icmp ne i32 %1, 0
  %2 = and i8 %bf.load.i.i, 2
  %tobool.i = icmp ne i8 %2, 0
  %or.cond = or i1 %tobool.i, %cmp.i.i.i5
  br label %return

return:                                           ; preds = %if.end5, %if.end, %entry
  %retval.0 = phi i1 [ false, %entry ], [ false, %if.end ], [ %or.cond, %if.end5 ]
  ret i1 %retval.0
}